BL51 BANKED LINKER/LOCATER V6.22                                                        03/15/2018  00:45:47  PAGE 1


BL51 BANKED LINKER/LOCATER V6.22, INVOKED BY:
D:\SOFTWARE\KEIL\C51\BIN\BL51.EXE .\Objects\main.obj, .\Objects\i2c.obj, .\Objects\uart.obj, .\Objects\move.obj, .\Objec
>> ts\robot_driver.obj TO .\Objects\test PRINT (.\Listings\test.m51) RAMSIZE (256)


MEMORY MODEL: SMALL WITH FLOATING POINT ARITHMETIC


INPUT MODULES INCLUDED:
  .\Objects\main.obj (MAIN)
  .\Objects\i2c.obj (I2C)
  .\Objects\uart.obj (UART)
  .\Objects\move.obj (MOVE)
  .\Objects\robot_driver.obj (ROBOT_DRIVER)
  D:\SOFTWARE\KEIL\C51\LIB\C51FPS.LIB (?C?FPADD)
  D:\SOFTWARE\KEIL\C51\LIB\C51FPS.LIB (?C?FPMUL)
  D:\SOFTWARE\KEIL\C51\LIB\C51FPS.LIB (?C?FCAST)
  D:\SOFTWARE\KEIL\C51\LIB\C51FPS.LIB (?C?CASTF)
  D:\SOFTWARE\KEIL\C51\LIB\C51FPS.LIB (?C?FPGETOPN)
  D:\SOFTWARE\KEIL\C51\LIB\C51S.LIB (?C_STARTUP)
  D:\SOFTWARE\KEIL\C51\LIB\C51S.LIB (?C?CLDPTR)
  D:\SOFTWARE\KEIL\C51\LIB\C51S.LIB (?C?CLDOPTR)
  D:\SOFTWARE\KEIL\C51\LIB\C51S.LIB (?C?CILDOPTR)
  D:\SOFTWARE\KEIL\C51\LIB\C51S.LIB (?C?CSTPTR)
  D:\SOFTWARE\KEIL\C51\LIB\C51S.LIB (?C?CSTOPTR)
  D:\SOFTWARE\KEIL\C51\LIB\C51S.LIB (?C?SIDIV)
  D:\SOFTWARE\KEIL\C51\LIB\C51S.LIB (?C?ILDPTR)
  D:\SOFTWARE\KEIL\C51\LIB\C51S.LIB (?C?ILDOPTR)
  D:\SOFTWARE\KEIL\C51\LIB\C51S.LIB (?C?ISTPTR)
  D:\SOFTWARE\KEIL\C51\LIB\C51S.LIB (?C?ISTOPTR)
  D:\SOFTWARE\KEIL\C51\LIB\C51S.LIB (?C?LNEG)
  D:\SOFTWARE\KEIL\C51\LIB\C51S.LIB (?C?UIDIV)


LINK MAP OF MODULE:  .\Objects\test (MAIN)


            TYPE    BASE      LENGTH    RELOCATION   SEGMENT NAME
            -----------------------------------------------------

            * * * * * * *   D A T A   M E M O R Y   * * * * * * *
            REG     0000H     0008H     ABSOLUTE     "REG BANK 0"
            DATA    0008H     0005H     UNIT         ?DT?_SEND?MAIN
            DATA    000DH     0005H     UNIT         ?DT?MAIN
            DATA    0012H     0003H     UNIT         ?DT?_MOVE?MOVE
            DATA    0015H     0003H     UNIT         ?DT?_RIGHT_LEG?ROBOT_DRIVER
            DATA    0018H     0003H     UNIT         ?DT?_LEFT_LEG?ROBOT_DRIVER
                    001BH     0005H                  *** GAP ***
            BIT     0020H.0   0000H.1   UNIT         _BIT_GROUP_
                    0020H.1   0000H.7                *** GAP ***
            DATA    0021H     0034H     UNIT         _DATA_GROUP_
            IDATA   0055H     0001H     UNIT         ?STACK

            * * * * * * *   C O D E   M E M O R Y   * * * * * * *
            CODE    0000H     0003H     ABSOLUTE     
            CODE    0003H     04B2H     UNIT         ?C?LIB_CODE
            CODE    04B5H     01D1H     UNIT         ?PR?_RIGHT_LEG?ROBOT_DRIVER
            CODE    0686H     01A4H     UNIT         ?PR?_LEFT_LEG?ROBOT_DRIVER
BL51 BANKED LINKER/LOCATER V6.22                                                      03/15/2018  00:45:47  PAGE 2


            CODE    082AH     0132H     UNIT         ?PR?_LEFT_HAND?ROBOT_DRIVER
            CODE    095CH     012CH     UNIT         ?PR?_RIGHT_HAND?ROBOT_DRIVER
            CODE    0A88H     00E2H     UNIT         ?PR?_SEND?MAIN
            CODE    0B6AH     00AFH     UNIT         ?PR?_SINGLE_READI2C?I2C
            CODE    0C19H     0070H     UNIT         ?PR?_TRANSFORM?MAIN
            CODE    0C89H     006FH     UNIT         ?PR?_CONVERSE?MAIN
            CODE    0CF8H     003FH     UNIT         ?PR?_SEND_DATA?MAIN
            CODE    0D37H     003EH     UNIT         ?PR?_MOVE?MOVE
            CODE    0D75H     0035H     UNIT         ?PR?MAIN?MAIN
            CODE    0DAAH     002CH     UNIT         ?PR?_I2C_RECVBYTE?I2C
            CODE    0DD6H     0024H     UNIT         ?PR?_I2C_SENDBYTE?I2C
            CODE    0DFAH     0022H     UNIT         ?PR?INITMPU6050?I2C
            CODE    0E1CH     0020H     UNIT         ?PR?_DELAY?MAIN
            CODE    0E3CH     001CH     UNIT         ?PR?DELAY5US?I2C
            CODE    0E58H     0019H     UNIT         ?PR?INIT_UART?UART
            CODE    0E71H     0018H     UNIT         ?PR?_GETDATA?MAIN
            CODE    0E89H     0017H     UNIT         ?PR?I2C_SENDACK?I2C
            CODE    0EA0H     0017H     UNIT         ?PR?_SINGLE_WRITEI2C?I2C
            CODE    0EB7H     000FH     UNIT         ?PR?I2C_START?I2C
            CODE    0EC6H     000FH     UNIT         ?PR?I2C_RECVACK?I2C
            CODE    0ED5H     000CH     UNIT         ?PR?I2C_STOP?I2C
            CODE    0EE1H     000CH     UNIT         ?C_C51STARTUP
            CODE    0EEDH     0008H     UNIT         ?PR?_SERIPUSHSEND?UART



OVERLAY MAP OF MODULE:   .\Objects\test (MAIN)


SEGMENT                                 BIT_GROUP          DATA_GROUP 
  +--> CALLED SEGMENT                START    LENGTH     START    LENGTH
------------------------------------------------------------------------
?C_C51STARTUP                        -----    -----      -----    -----
  +--> ?PR?MAIN?MAIN

?PR?MAIN?MAIN                        -----    -----      0021H    0020H
  +--> ?PR?INIT_UART?UART
  +--> ?PR?INITMPU6050?I2C
  +--> ?PR?_GETDATA?MAIN
  +--> ?PR?_TRANSFORM?MAIN
  +--> ?PR?_SEND_DATA?MAIN
  +--> ?PR?_DELAY?MAIN

?PR?INITMPU6050?I2C                  -----    -----      -----    -----
  +--> ?PR?_SINGLE_WRITEI2C?I2C

?PR?_SINGLE_WRITEI2C?I2C             -----    -----      -----    -----
  +--> ?PR?I2C_START?I2C
  +--> ?PR?_I2C_SENDBYTE?I2C
  +--> ?PR?I2C_STOP?I2C

?PR?I2C_START?I2C                    -----    -----      -----    -----
  +--> ?PR?DELAY5US?I2C

?PR?_I2C_SENDBYTE?I2C                -----    -----      -----    -----
  +--> ?PR?DELAY5US?I2C
  +--> ?PR?I2C_RECVACK?I2C
BL51 BANKED LINKER/LOCATER V6.22                                                      03/15/2018  00:45:47  PAGE 3



?PR?I2C_RECVACK?I2C                  -----    -----      -----    -----
  +--> ?PR?DELAY5US?I2C

?PR?I2C_STOP?I2C                     -----    -----      -----    -----
  +--> ?PR?DELAY5US?I2C

?PR?_GETDATA?MAIN                    -----    -----      0041H    0004H
  +--> ?PR?_SINGLE_READI2C?I2C

?PR?_SINGLE_READI2C?I2C              -----    -----      0045H    000DH
  +--> ?PR?I2C_START?I2C
  +--> ?PR?_I2C_SENDBYTE?I2C
  +--> ?PR?_I2C_RECVBYTE?I2C
  +--> ?PR?I2C_SENDACK?I2C
  +--> ?PR?I2C_STOP?I2C

?PR?_I2C_RECVBYTE?I2C                -----    -----      0052H    0003H
  +--> ?PR?DELAY5US?I2C

?PR?I2C_SENDACK?I2C                  0020H.0  0000H.1    -----    -----
  +--> ?PR?DELAY5US?I2C

?PR?_TRANSFORM?MAIN                  -----    -----      0041H    0007H

?PR?_SEND_DATA?MAIN                  -----    -----      0041H    0003H



SYMBOL TABLE OF MODULE:  .\Objects\test (MAIN)

  VALUE           TYPE          NAME
  ----------------------------------

  -------         MODULE        MAIN
  C:0000H         SYMBOL        _ICE_DUMMY_
  D:0090H         PUBLIC        P1
  D:00B0H         PUBLIC        P3
  D:00A8H         PUBLIC        IE
  C:0E1CH         PUBLIC        _delay
  D:00B8H         PUBLIC        IP
  B:0098H.1       PUBLIC        TI
  C:0E71H         PUBLIC        _GetData
  C:0D75H         PUBLIC        main
  C:0CF8H         PUBLIC        _send_data
  D:000DH         PUBLIC        qian
  C:0A88H         PUBLIC        _send
  D:000EH         PUBLIC        bai
  D:0099H         PUBLIC        SBUF
  D:0098H         PUBLIC        SCON
  D:0088H         PUBLIC        TCON
  D:000FH         PUBLIC        shi
  D:0010H         PUBLIC        wan
  D:0011H         PUBLIC        ge
  C:0C19H         PUBLIC        _transform
  D:00C8H         PUBLIC        T2CON
  C:0C89H         PUBLIC        _converse
BL51 BANKED LINKER/LOCATER V6.22                                                      03/15/2018  00:45:47  PAGE 4


  D:00D0H         PUBLIC        PSW
  -------         PROC          _DELAY
  D:0006H         SYMBOL        k
  -------         DO            
  D:0004H         SYMBOL        i
  D:0002H         SYMBOL        j
  -------         ENDDO         
  C:0E1CH         LINE#         44
  C:0E1CH         LINE#         45
  C:0E1CH         LINE#         48
  C:0E26H         LINE#         49
  C:0E26H         LINE#         50
  C:0E34H         LINE#         51
  C:0E3BH         LINE#         52
  -------         ENDPROC       _DELAY
  -------         PROC          _GETDATA
  D:0041H         SYMBOL        REG_Address
  D:0042H         SYMBOL        temp
  C:0E71H         LINE#         57
  C:0E79H         LINE#         58
  C:0E79H         LINE#         61
  C:0E7CH         LINE#         62
  -------         ENDPROC       _GETDATA
  -------         PROC          _CONVERSE
  D:0002H         SYMBOL        num
  C:0C89H         LINE#         66
  C:0C8DH         LINE#         67
  C:0C8DH         LINE#         71
  C:0C96H         LINE#         72
  C:0CA5H         LINE#         73
  C:0CB2H         LINE#         74
  C:0CC1H         LINE#         75
  C:0CCEH         LINE#         76
  C:0CDDH         LINE#         77
  C:0CEAH         LINE#         78
  C:0CF7H         LINE#         79
  -------         ENDPROC       _CONVERSE
  -------         PROC          _SEND
  D:0008H         SYMBOL        num
  -------         DO            
  D:000BH         SYMBOL        i
  -------         ENDDO         
  C:0A88H         LINE#         81
  C:0A8EH         LINE#         82
  C:0A8EH         LINE#         85
  C:0A93H         LINE#         86
  C:0A93H         LINE#         87
  C:0A99H         LINE#         88
  C:0A9EH         LINE#         89
  C:0AA1H         LINE#         90
  C:0AA6H         LINE#         91
  C:0AC6H         LINE#         92
  C:0AC6H         LINE#         93
  C:0ADFH         LINE#         94
  C:0AE2H         LINE#         95
  C:0AE7H         LINE#         96
  C:0AE9H         LINE#         98
BL51 BANKED LINKER/LOCATER V6.22                                                      03/15/2018  00:45:47  PAGE 5


  C:0AE9H         LINE#         99
  C:0AECH         LINE#         100
  C:0AF1H         LINE#         101
  C:0AF1H         LINE#         102
  C:0B0CH         LINE#         103
  C:0B12H         LINE#         104
  C:0B17H         LINE#         105
  C:0B1DH         LINE#         106
  C:0B22H         LINE#         107
  C:0B28H         LINE#         108
  C:0B2DH         LINE#         109
  C:0B33H         LINE#         110
  C:0B38H         LINE#         111
  C:0B3EH         LINE#         112
  C:0B43H         LINE#         113
  C:0B46H         LINE#         114
  C:0B4BH         LINE#         115
  C:0B4EH         LINE#         116
  C:0B53H         LINE#         117
  C:0B69H         LINE#         118
  -------         ENDPROC       _SEND
  -------         PROC          _TRANSFORM
  D:0041H         SYMBOL        num
  D:0044H         SYMBOL        temp
  -------         DO            
  D:0047H         SYMBOL        i
  -------         ENDDO         
  C:0C19H         LINE#         120
  C:0C1FH         LINE#         121
  C:0C1FH         LINE#         124
  C:0C22H         LINE#         125
  C:0C22H         LINE#         126
  C:0C64H         LINE#         127
  C:0C81H         LINE#         128
  C:0C88H         LINE#         129
  -------         ENDPROC       _TRANSFORM
  -------         PROC          _SEND_DATA
  D:0041H         SYMBOL        num
  -------         DO            
  D:0006H         SYMBOL        i
  -------         ENDDO         
  C:0CF8H         LINE#         130
  C:0CFEH         LINE#         131
  C:0CFEH         LINE#         133
  C:0D01H         LINE#         134
  C:0D01H         LINE#         135
  C:0D10H         LINE#         136
  C:0D17H         LINE#         137
  C:0D22H         LINE#         138
  C:0D25H         LINE#         139
  C:0D2CH         LINE#         140
  C:0D2FH         LINE#         141
  C:0D36H         LINE#         142
  -------         ENDPROC       _SEND_DATA
  -------         PROC          MAIN
  -------         DO            
  D:0021H         SYMBOL        num
BL51 BANKED LINKER/LOCATER V6.22                                                      03/15/2018  00:45:47  PAGE 6


  D:0031H         SYMBOL        temp
  -------         ENDDO         
  C:0D75H         LINE#         147
  C:0D75H         LINE#         148
  C:0D75H         LINE#         151
  C:0D78H         LINE#         152
  C:0D7BH         LINE#         154
  C:0D7BH         LINE#         155
  C:0D7BH         LINE#         156
  C:0D86H         LINE#         157
  C:0D98H         LINE#         165
  C:0DA1H         LINE#         173
  C:0DA8H         LINE#         174
  -------         ENDPROC       MAIN
  -------         ENDMOD        MAIN

  -------         MODULE        I2C
  C:0000H         SYMBOL        _ICE_DUMMY_
  D:0080H         PUBLIC        P0
  D:0090H         PUBLIC        P1
  C:0EC6H         PUBLIC        I2C_RecvACK
  D:00B0H         PUBLIC        P3
  C:0B6AH         PUBLIC        _Single_ReadI2C
  D:00A8H         PUBLIC        IE
  C:0E3FH         PUBLIC        Delay5us
  C:0EA0H         PUBLIC        _Single_WriteI2C
  D:00B8H         PUBLIC        IP
  B:00D0H.7       PUBLIC        CY
  C:0EB7H         PUBLIC        I2C_Start
  D:0098H         PUBLIC        SCON
  D:0088H         PUBLIC        TCON
  C:0DD6H         PUBLIC        _I2C_SendByte
  C:0ED5H         PUBLIC        I2C_Stop
  C:0DAAH         PUBLIC        _I2C_RecvByte
  C:0DFAH         PUBLIC        InitMPU6050
  D:00C8H         PUBLIC        T2CON
  D:00D0H         PUBLIC        PSW
  C:0E89H         PUBLIC        I2C_SendACK
  -------         PROC          L?0037
  -------         ENDPROC       L?0037
  -------         PROC          DELAY5US
  C:0E3FH         LINE#         11
  C:0E3FH         LINE#         12
  C:0E3FH         LINE#         13
  C:0E43H         LINE#         14
  C:0E47H         LINE#         15
  C:0E4BH         LINE#         16
  C:0E4FH         LINE#         17
  C:0E53H         LINE#         18
  C:0E57H         LINE#         19
  -------         ENDPROC       DELAY5US
  -------         PROC          I2C_START
  C:0EB7H         LINE#         23
  C:0EB7H         LINE#         24
  C:0EB7H         LINE#         25
  C:0EBAH         LINE#         26
  C:0EBAH         LINE#         27
BL51 BANKED LINKER/LOCATER V6.22                                                      03/15/2018  00:45:47  PAGE 7


  C:0EBDH         LINE#         28
  C:0EC0H         LINE#         29
  C:0EC3H         LINE#         30
  C:0EC5H         LINE#         31
  -------         ENDPROC       I2C_START
  -------         PROC          I2C_STOP
  C:0ED5H         LINE#         35
  C:0ED5H         LINE#         36
  C:0ED5H         LINE#         37
  C:0ED8H         LINE#         38
  C:0ED8H         LINE#         39
  C:0EDBH         LINE#         40
  C:0EDEH         LINE#         41
  -------         ENDPROC       I2C_STOP
  -------         PROC          I2C_SENDACK
  B:0020H.0       SYMBOL        ack
  C:0E89H         LINE#         47
  C:0E89H         LINE#         48
  C:0E89H         LINE#         49
  C:0E8CH         LINE#         50
  C:0E91H         LINE#         52
  C:0E94H         LINE#         53
  C:0E97H         LINE#         54
  C:0E9AH         LINE#         55
  C:0E9DH         LINE#         56
  -------         ENDPROC       I2C_SENDACK
  -------         PROC          I2C_RECVACK
  -------         DO            
  D:0007H         SYMBOL        buf
  -------         ENDDO         
  C:0EC6H         LINE#         61
  C:0EC6H         LINE#         62
  C:0EC6H         LINE#         64
  C:0EC9H         LINE#         65
  C:0ECCH         LINE#         66
  C:0ECEH         LINE#         67
  C:0ED1H         LINE#         68
  C:0ED4H         LINE#         69
  C:0ED4H         LINE#         70
  -------         ENDPROC       I2C_RECVACK
  -------         PROC          _I2C_SENDBYTE
  D:0007H         SYMBOL        dat
  -------         DO            
  D:0006H         SYMBOL        i
  -------         ENDDO         
  C:0DD6H         LINE#         74
  C:0DD6H         LINE#         75
  C:0DD6H         LINE#         77
  C:0DD8H         LINE#         78
  C:0DD8H         LINE#         79
  C:0DDCH         LINE#         80
  C:0DDFH         LINE#         81
  C:0DE4H         LINE#         83
  C:0DE7H         LINE#         84
  C:0DEAH         LINE#         85
  C:0DEDH         LINE#         86
  C:0DF0H         LINE#         87
BL51 BANKED LINKER/LOCATER V6.22                                                      03/15/2018  00:45:47  PAGE 8


  C:0DF3H         LINE#         88
  C:0DF7H         LINE#         89
  -------         ENDPROC       _I2C_SENDBYTE
  -------         PROC          _I2C_RECVBYTE
  D:0052H         SYMBOL        buf
  -------         DO            
  D:0007H         SYMBOL        i
  -------         ENDDO         
  C:0DAAH         LINE#         94
  C:0DB0H         LINE#         95
  C:0DB0H         LINE#         97
  C:0DB3H         LINE#         98
  C:0DB5H         LINE#         99
  C:0DB5H         LINE#         100
  C:0DB8H         LINE#         101
  C:0DBBH         LINE#         102
  C:0DCBH         LINE#         103
  C:0DCEH         LINE#         104
  C:0DD1H         LINE#         105
  C:0DD5H         LINE#         106
  -------         ENDPROC       _I2C_RECVBYTE
  -------         PROC          _SINGLE_WRITEI2C
  D:0004H         SYMBOL        REG_Address
  D:0005H         SYMBOL        REG_data
  C:0EA0H         LINE#         110
  C:0EA2H         LINE#         111
  C:0EA2H         LINE#         112
  C:0EA5H         LINE#         113
  C:0EAAH         LINE#         114
  C:0EAFH         LINE#         115
  C:0EB4H         LINE#         116
  -------         ENDPROC       _SINGLE_WRITEI2C
  -------         PROC          _SINGLE_READI2C
  D:0045H         SYMBOL        REG_Address
  D:0046H         SYMBOL        temp
  -------         DO            
  D:0004H         SYMBOL        i
  D:0005H         SYMBOL        j
  D:0049H         SYMBOL        k
  D:004AH         SYMBOL        buf
  -------         ENDDO         
  C:0B6AH         LINE#         121
  C:0B72H         LINE#         122
  C:0B72H         LINE#         128
  C:0B75H         LINE#         129
  C:0B7AH         LINE#         130
  C:0B7FH         LINE#         131
  C:0B82H         LINE#         132
  C:0B87H         LINE#         133
  C:0B90H         LINE#         134
  C:0B95H         LINE#         135
  C:0B98H         LINE#         141
  C:0B9DH         LINE#         142
  C:0B9DH         LINE#         143
  C:0B9FH         LINE#         144
  C:0B9FH         LINE#         145
  C:0BA1H         LINE#         146
BL51 BANKED LINKER/LOCATER V6.22                                                      03/15/2018  00:45:47  PAGE 9


  C:0BA1H         LINE#         147
  C:0BB3H         LINE#         148
  C:0BBFH         LINE#         149
  C:0BC2H         LINE#         150
  C:0BD2H         LINE#         151
  C:0BD6H         LINE#         152
  C:0BDBH         LINE#         153
  C:0BDBH         LINE#         155
  C:0BDBH         LINE#         156
  C:0BDDH         LINE#         157
  C:0BDDH         LINE#         158
  C:0BDFH         LINE#         159
  C:0BDFH         LINE#         160
  C:0BF1H         LINE#         161
  C:0BFDH         LINE#         162
  C:0C00H         LINE#         163
  C:0C10H         LINE#         164
  C:0C14H         LINE#         165
  C:0C18H         LINE#         166
  C:0C18H         LINE#         168
  -------         ENDPROC       _SINGLE_READI2C
  -------         PROC          INITMPU6050
  C:0DFAH         LINE#         173
  C:0DFAH         LINE#         174
  C:0DFAH         LINE#         175
  C:0E01H         LINE#         176
  C:0E08H         LINE#         177
  C:0E0EH         LINE#         178
  C:0E15H         LINE#         179
  -------         ENDPROC       INITMPU6050
  -------         ENDMOD        I2C

  -------         MODULE        UART
  C:0000H         SYMBOL        _ICE_DUMMY_
  D:0090H         PUBLIC        P1
  D:00B0H         PUBLIC        P3
  B:00A8H.7       PUBLIC        EA
  D:00A8H         PUBLIC        IE
  B:00A8H.4       PUBLIC        ES
  D:00B8H         PUBLIC        IP
  B:0098H.1       PUBLIC        TI
  B:00B8H.4       PUBLIC        PS
  D:0099H         PUBLIC        SBUF
  D:0098H         PUBLIC        SCON
  D:0089H         PUBLIC        TMOD
  D:0088H         PUBLIC        TCON
  C:0EEDH         PUBLIC        _SeriPushSend
  B:00A8H.1       PUBLIC        ET0
  D:008DH         PUBLIC        TH1
  D:008BH         PUBLIC        TL1
  C:0E58H         PUBLIC        init_uart
  B:0088H.4       PUBLIC        TR0
  B:0088H.6       PUBLIC        TR1
  D:00C8H         PUBLIC        T2CON
  D:00D0H         PUBLIC        PSW
  -------         PROC          INIT_UART
  C:0E58H         LINE#         3
BL51 BANKED LINKER/LOCATER V6.22                                                      03/15/2018  00:45:47  PAGE 10


  C:0E58H         LINE#         4
  C:0E58H         LINE#         5
  C:0E5BH         LINE#         6
  C:0E5EH         LINE#         7
  C:0E61H         LINE#         9
  C:0E64H         LINE#         10
  C:0E66H         LINE#         11
  C:0E68H         LINE#         12
  C:0E6AH         LINE#         13
  C:0E6CH         LINE#         14
  C:0E6EH         LINE#         15
  C:0E70H         LINE#         16
  -------         ENDPROC       INIT_UART
  -------         PROC          _SERIPUSHSEND
  D:0007H         SYMBOL        send_data
  C:0EEDH         LINE#         17
  C:0EEDH         LINE#         18
  C:0EEDH         LINE#         19
  C:0EEFH         LINE#         20
  C:0EF4H         LINE#         21
  -------         ENDPROC       _SERIPUSHSEND
  -------         ENDMOD        UART

  -------         MODULE        MOVE
  C:0000H         SYMBOL        _ICE_DUMMY_
  D:0090H         PUBLIC        P1
  D:00B0H         PUBLIC        P3
  D:00A8H         PUBLIC        IE
  D:00B8H         PUBLIC        IP
  D:0098H         PUBLIC        SCON
  D:0088H         PUBLIC        TCON
  C:0D37H         PUBLIC        _move
  D:00C8H         PUBLIC        T2CON
  D:00D0H         PUBLIC        PSW
  -------         PROC          _MOVE
  D:0012H         SYMBOL        number
  D:0013H         SYMBOL        position
  C:0D37H         LINE#         5
  C:0D3DH         LINE#         6
  C:0D3DH         LINE#         7
  C:0D42H         LINE#         8
  C:0D47H         LINE#         9
  C:0D4CH         LINE#         10
  C:0D51H         LINE#         11
  C:0D56H         LINE#         12
  C:0D5BH         LINE#         13
  C:0D60H         LINE#         14
  C:0D65H         LINE#         15
  C:0D6CH         LINE#         16
  -------         ENDPROC       _MOVE
  -------         ENDMOD        MOVE

  -------         MODULE        ROBOT_DRIVER
  C:0000H         SYMBOL        _ICE_DUMMY_
  B:0098H.1       PUBLIC        TI
  C:095CH         PUBLIC        _right_hand
  C:082AH         PUBLIC        _left_hand
BL51 BANKED LINKER/LOCATER V6.22                                                      03/15/2018  00:45:47  PAGE 11


  D:0099H         PUBLIC        SBUF
  C:04B5H         PUBLIC        _right_leg
  C:0686H         PUBLIC        _left_leg
  -------         PROC          _RIGHT_LEG
  D:0015H         SYMBOL        num
  C:04B5H         LINE#         6
  C:04BBH         LINE#         7
  C:04BBH         LINE#         9
  C:04D3H         LINE#         10
  C:04E4H         LINE#         11
  C:04F5H         LINE#         12
  C:050CH         LINE#         13
  C:0517H         LINE#         14
  C:055FH         LINE#         15
  C:0570H         LINE#         16
  C:0581H         LINE#         17
  C:0598H         LINE#         18
  C:05A3H         LINE#         20
  C:05A6H         LINE#         21
  C:05ABH         LINE#         22
  C:05AEH         LINE#         23
  C:05B3H         LINE#         24
  C:05B6H         LINE#         25
  C:05BBH         LINE#         26
  C:05BEH         LINE#         27
  C:05C3H         LINE#         28
  C:05C6H         LINE#         29
  C:05CBH         LINE#         30
  C:05CEH         LINE#         31
  C:05D3H         LINE#         32
  C:05D6H         LINE#         33
  C:05DBH         LINE#         34
  C:05DEH         LINE#         35
  C:05E3H         LINE#         36
  C:05E6H         LINE#         37
  C:05EBH         LINE#         38
  C:05EEH         LINE#         39
  C:05F3H         LINE#         40
  C:05F6H         LINE#         41
  C:05FBH         LINE#         42
  C:0609H         LINE#         43
  C:060EH         LINE#         44
  C:061FH         LINE#         45
  C:0624H         LINE#         46
  C:0627H         LINE#         47
  C:062CH         LINE#         48
  C:062FH         LINE#         49
  C:0634H         LINE#         50
  C:0637H         LINE#         51
  C:063CH         LINE#         52
  C:063FH         LINE#         53
  C:0644H         LINE#         54
  C:0652H         LINE#         55
  C:0657H         LINE#         56
  C:0668H         LINE#         57
  C:066DH         LINE#         58
  C:0670H         LINE#         59
BL51 BANKED LINKER/LOCATER V6.22                                                      03/15/2018  00:45:47  PAGE 12


  C:0675H         LINE#         60
  C:0678H         LINE#         61
  C:067DH         LINE#         62
  C:0680H         LINE#         63
  C:0685H         LINE#         64
  -------         ENDPROC       _RIGHT_LEG
  -------         PROC          _LEFT_LEG
  D:0018H         SYMBOL        num
  C:0686H         LINE#         65
  C:068CH         LINE#         66
  C:068CH         LINE#         68
  C:06A1H         LINE#         69
  C:06B2H         LINE#         70
  C:06C3H         LINE#         71
  C:06DAH         LINE#         72
  C:06E5H         LINE#         73
  C:0715H         LINE#         74
  C:0729H         LINE#         75
  C:0731H         LINE#         76
  C:0745H         LINE#         77
  C:074DH         LINE#         79
  C:0750H         LINE#         80
  C:0755H         LINE#         81
  C:0758H         LINE#         82
  C:075DH         LINE#         83
  C:0760H         LINE#         84
  C:0765H         LINE#         85
  C:0768H         LINE#         86
  C:076DH         LINE#         87
  C:0770H         LINE#         88
  C:0775H         LINE#         89
  C:0778H         LINE#         90
  C:077DH         LINE#         91
  C:0780H         LINE#         92
  C:0785H         LINE#         93
  C:0788H         LINE#         94
  C:078DH         LINE#         95
  C:0790H         LINE#         96
  C:0795H         LINE#         97
  C:0798H         LINE#         98
  C:079DH         LINE#         99
  C:07A0H         LINE#         100
  C:07A5H         LINE#         101
  C:07B0H         LINE#         102
  C:07B5H         LINE#         103
  C:07C3H         LINE#         104
  C:07C8H         LINE#         105
  C:07CBH         LINE#         106
  C:07D0H         LINE#         107
  C:07D3H         LINE#         108
  C:07D8H         LINE#         109
  C:07DBH         LINE#         110
  C:07E0H         LINE#         111
  C:07E3H         LINE#         112
  C:07E8H         LINE#         113
  C:07F6H         LINE#         114
  C:07FBH         LINE#         115
BL51 BANKED LINKER/LOCATER V6.22                                                      03/15/2018  00:45:47  PAGE 13


  C:080CH         LINE#         116
  C:0811H         LINE#         117
  C:0814H         LINE#         118
  C:0819H         LINE#         119
  C:081CH         LINE#         120
  C:0821H         LINE#         121
  C:0824H         LINE#         122
  C:0829H         LINE#         123
  -------         ENDPROC       _LEFT_LEG
  -------         PROC          _LEFT_HAND
  D:0001H         SYMBOL        num
  C:082AH         LINE#         124
  C:082AH         LINE#         125
  C:082AH         LINE#         127
  C:0842H         LINE#         128
  C:0853H         LINE#         129
  C:085EH         LINE#         130
  C:086FH         LINE#         131
  C:087AH         LINE#         132
  C:08A1H         LINE#         133
  C:08B2H         LINE#         134
  C:08BDH         LINE#         135
  C:08CEH         LINE#         136
  C:08D9H         LINE#         138
  C:08DCH         LINE#         139
  C:08E1H         LINE#         140
  C:08E4H         LINE#         141
  C:08E9H         LINE#         142
  C:08ECH         LINE#         143
  C:08F1H         LINE#         144
  C:08F4H         LINE#         145
  C:08F9H         LINE#         146
  C:08FCH         LINE#         147
  C:0901H         LINE#         148
  C:0904H         LINE#         149
  C:0909H         LINE#         150
  C:090CH         LINE#         151
  C:0911H         LINE#         152
  C:0914H         LINE#         153
  C:0919H         LINE#         154
  C:0921H         LINE#         155
  C:0926H         LINE#         156
  C:0931H         LINE#         157
  C:0936H         LINE#         158
  C:0939H         LINE#         159
  C:093EH         LINE#         160
  C:0946H         LINE#         161
  C:094BH         LINE#         162
  C:0956H         LINE#         163
  C:095BH         LINE#         164
  -------         ENDPROC       _LEFT_HAND
  -------         PROC          _RIGHT_HAND
  D:0001H         SYMBOL        num
  C:095CH         LINE#         165
  C:095CH         LINE#         166
  C:095CH         LINE#         168
  C:0971H         LINE#         169
BL51 BANKED LINKER/LOCATER V6.22                                                      03/15/2018  00:45:47  PAGE 14


  C:0982H         LINE#         170
  C:098DH         LINE#         171
  C:099EH         LINE#         172
  C:09A9H         LINE#         173
  C:09CDH         LINE#         174
  C:09DEH         LINE#         175
  C:09E9H         LINE#         176
  C:09FAH         LINE#         177
  C:0A05H         LINE#         179
  C:0A08H         LINE#         180
  C:0A0DH         LINE#         181
  C:0A10H         LINE#         182
  C:0A15H         LINE#         183
  C:0A18H         LINE#         184
  C:0A1DH         LINE#         185
  C:0A20H         LINE#         186
  C:0A25H         LINE#         187
  C:0A28H         LINE#         188
  C:0A2DH         LINE#         189
  C:0A30H         LINE#         190
  C:0A35H         LINE#         191
  C:0A38H         LINE#         192
  C:0A3DH         LINE#         193
  C:0A40H         LINE#         194
  C:0A45H         LINE#         195
  C:0A4DH         LINE#         196
  C:0A52H         LINE#         197
  C:0A5DH         LINE#         198
  C:0A62H         LINE#         199
  C:0A65H         LINE#         200
  C:0A6AH         LINE#         201
  C:0A72H         LINE#         202
  C:0A77H         LINE#         203
  C:0A82H         LINE#         204
  C:0A87H         LINE#         205
  -------         ENDPROC       _RIGHT_HAND
  -------         ENDMOD        ROBOT_DRIVER

  -------         MODULE        ?C?FPADD
  C:000AH         PUBLIC        ?C?FPADD
  C:0006H         PUBLIC        ?C?FPSUB
  -------         ENDMOD        ?C?FPADD

  -------         MODULE        ?C?FPMUL
  C:00FBH         PUBLIC        ?C?FPMUL
  -------         ENDMOD        ?C?FPMUL

  -------         MODULE        ?C?FCAST
  C:020BH         PUBLIC        ?C?FCASTC
  C:0206H         PUBLIC        ?C?FCASTI
  C:0201H         PUBLIC        ?C?FCASTL
  -------         ENDMOD        ?C?FCAST

  -------         MODULE        ?C?CASTF
  C:023FH         PUBLIC        ?C?CASTF
  -------         ENDMOD        ?C?CASTF

BL51 BANKED LINKER/LOCATER V6.22                                                      03/15/2018  00:45:47  PAGE 15


  -------         MODULE        ?C?CLDPTR
  C:02C0H         PUBLIC        ?C?CLDPTR
  -------         ENDMOD        ?C?CLDPTR

  -------         MODULE        ?C?CLDOPTR
  C:02D9H         PUBLIC        ?C?CLDOPTR
  -------         ENDMOD        ?C?CLDOPTR

  -------         MODULE        ?C?CILDOPTR
  C:0306H         PUBLIC        ?C?CILDOPTR
  -------         ENDMOD        ?C?CILDOPTR

  -------         MODULE        ?C?CSTPTR
  C:0339H         PUBLIC        ?C?CSTPTR
  -------         ENDMOD        ?C?CSTPTR

  -------         MODULE        ?C?CSTOPTR
  C:034BH         PUBLIC        ?C?CSTOPTR
  -------         ENDMOD        ?C?CSTOPTR

  -------         MODULE        ?C?SIDIV
  C:036DH         PUBLIC        ?C?SIDIV
  -------         ENDMOD        ?C?SIDIV

  -------         MODULE        ?C?ILDPTR
  C:03A3H         PUBLIC        ?C?ILDPTR
  -------         ENDMOD        ?C?ILDPTR

  -------         MODULE        ?C?ILDOPTR
  C:03CEH         PUBLIC        ?C?ILDOPTR
  -------         ENDMOD        ?C?ILDOPTR

  -------         MODULE        ?C?ISTPTR
  C:0406H         PUBLIC        ?C?ISTPTR
  -------         ENDMOD        ?C?ISTPTR

  -------         MODULE        ?C?ISTOPTR
  C:0425H         PUBLIC        ?C?ISTOPTR
  -------         ENDMOD        ?C?ISTOPTR

  -------         MODULE        ?C?LNEG
  C:0452H         PUBLIC        ?C?LNEG
  -------         ENDMOD        ?C?LNEG

  -------         MODULE        ?C?UIDIV
  C:0460H         PUBLIC        ?C?UIDIV
  -------         ENDMOD        ?C?UIDIV

*** WARNING L16: UNCALLED SEGMENT, IGNORED FOR OVERLAY PROCESS
    SEGMENT: ?PR?_SEND?MAIN

*** WARNING L16: UNCALLED SEGMENT, IGNORED FOR OVERLAY PROCESS
    SEGMENT: ?PR?_MOVE?MOVE

*** WARNING L16: UNCALLED SEGMENT, IGNORED FOR OVERLAY PROCESS
    SEGMENT: ?PR?_RIGHT_LEG?ROBOT_DRIVER

BL51 BANKED LINKER/LOCATER V6.22                                                      03/15/2018  00:45:47  PAGE 16


*** WARNING L16: UNCALLED SEGMENT, IGNORED FOR OVERLAY PROCESS
    SEGMENT: ?PR?_LEFT_LEG?ROBOT_DRIVER

*** WARNING L16: UNCALLED SEGMENT, IGNORED FOR OVERLAY PROCESS
    SEGMENT: ?PR?_LEFT_HAND?ROBOT_DRIVER

*** WARNING L16: UNCALLED SEGMENT, IGNORED FOR OVERLAY PROCESS
    SEGMENT: ?PR?_RIGHT_HAND?ROBOT_DRIVER

Program Size: data=80.1 xdata=0 code=3829
LINK/LOCATE RUN COMPLETE.  6 WARNING(S),  0 ERROR(S)
